target datalayout = "e-m:e-p270:32:32-p271:32:32-p272:64:64-i64:64-i128:128-f80:128-n8:16:32:64-S128"
target triple = "x86_64-pc-linux-gnu"

%struct.ggml_tensor = type { i32, ptr, [4 x i64], [4 x i64], i32, [16 x i32], i32, [10 x ptr], ptr, i64, ptr, [64 x i8], ptr, [8 x i8] }

@.str.12 = private unnamed_addr constant [113 x i8] c"generated/home/dtcxzyw/WorkSpace/Projects/compilers/llvm-opt-benchmark/bench/llama.cpp/llama.cpp/ggml/src/ggml.c\00", align 1
@.str.13 = private unnamed_addr constant [23 x i8] c"GGML_ASSERT(%s) failed\00", align 1
@.str.26 = private unnamed_addr constant [26 x i8] c"ggml_are_same_shape(a, b)\00", align 1

; Function Attrs: nounwind uwtable
define ptr @ggml_new_tensor(ptr noundef %0, i32 noundef %1, i32 noundef %2, ptr noundef %3) #5 {
  %5 = alloca ptr, align 8
  %6 = alloca i32, align 4
  %7 = alloca i32, align 4
  %8 = alloca ptr, align 8
  store ptr %0, ptr %5, align 8, !tbaa !48
  store i32 %1, ptr %6, align 4, !tbaa !8
  store i32 %2, ptr %7, align 4, !tbaa !8
  store ptr %3, ptr %8, align 8, !tbaa !88
  %9 = load ptr, ptr %5, align 8, !tbaa !48
  %10 = load i32, ptr %6, align 4, !tbaa !8
  %11 = load i32, ptr %7, align 4, !tbaa !8
  %12 = load ptr, ptr %8, align 8, !tbaa !88
  %13 = call ptr @ggml_new_tensor_impl(ptr noundef %9, i32 noundef %10, i32 noundef %11, ptr noundef %12, ptr noundef null, i64 noundef 0)
  ret ptr %13
}

; Function Attrs: nounwind uwtable
define ptr @ggml_new_tensor_1d(ptr noundef %0, i32 noundef %1, i64 noundef %2) #5 {
  %4 = alloca ptr, align 8
  %5 = alloca i32, align 4
  %6 = alloca i64, align 8
  store ptr %0, ptr %4, align 8, !tbaa !48
  store i32 %1, ptr %5, align 4, !tbaa !8
  store i64 %2, ptr %6, align 8, !tbaa !19
  %7 = load ptr, ptr %4, align 8, !tbaa !48
  %8 = load i32, ptr %5, align 4, !tbaa !8
  %9 = call ptr @ggml_new_tensor(ptr noundef %7, i32 noundef %8, i32 noundef 1, ptr noundef %6)
  ret ptr %9
}

; Function Attrs: nounwind uwtable
define zeroext i1 @ggml_are_same_shape(ptr noundef %0, ptr noundef %1) #5 {
  %3 = alloca ptr, align 8
  %4 = alloca ptr, align 8
  store ptr %0, ptr %3, align 8, !tbaa !54
  store ptr %1, ptr %4, align 8, !tbaa !54
  %5 = load ptr, ptr %3, align 8, !tbaa !54
  %6 = getelementptr inbounds nuw %struct.ggml_tensor, ptr %5, i32 0, i32 2
  %7 = getelementptr inbounds [4 x i64], ptr %6, i64 0, i64 0
  %8 = load i64, ptr %7, align 8, !tbaa !19
  %9 = load ptr, ptr %4, align 8, !tbaa !54
  %10 = getelementptr inbounds nuw %struct.ggml_tensor, ptr %9, i32 0, i32 2
  %11 = getelementptr inbounds [4 x i64], ptr %10, i64 0, i64 0
  %12 = load i64, ptr %11, align 8, !tbaa !19
  %13 = icmp eq i64 %8, %12
  br i1 %13, label %14, label %44

14:                                               ; preds = %2
  %15 = load ptr, ptr %3, align 8, !tbaa !54
  %16 = getelementptr inbounds nuw %struct.ggml_tensor, ptr %15, i32 0, i32 2
  %17 = getelementptr inbounds [4 x i64], ptr %16, i64 0, i64 1
  %18 = load i64, ptr %17, align 8, !tbaa !19
  %19 = load ptr, ptr %4, align 8, !tbaa !54
  %20 = getelementptr inbounds nuw %struct.ggml_tensor, ptr %19, i32 0, i32 2
  %21 = getelementptr inbounds [4 x i64], ptr %20, i64 0, i64 1
  %22 = load i64, ptr %21, align 8, !tbaa !19
  %23 = icmp eq i64 %18, %22
  br i1 %23, label %24, label %44

24:                                               ; preds = %14
  %25 = load ptr, ptr %3, align 8, !tbaa !54
  %26 = getelementptr inbounds nuw %struct.ggml_tensor, ptr %25, i32 0, i32 2
  %27 = getelementptr inbounds [4 x i64], ptr %26, i64 0, i64 2
  %28 = load i64, ptr %27, align 8, !tbaa !19
  %29 = load ptr, ptr %4, align 8, !tbaa !54
  %30 = getelementptr inbounds nuw %struct.ggml_tensor, ptr %29, i32 0, i32 2
  %31 = getelementptr inbounds [4 x i64], ptr %30, i64 0, i64 2
  %32 = load i64, ptr %31, align 8, !tbaa !19
  %33 = icmp eq i64 %28, %32
  br i1 %33, label %34, label %44

34:                                               ; preds = %24
  %35 = load ptr, ptr %3, align 8, !tbaa !54
  %36 = getelementptr inbounds nuw %struct.ggml_tensor, ptr %35, i32 0, i32 2
  %37 = getelementptr inbounds [4 x i64], ptr %36, i64 0, i64 3
  %38 = load i64, ptr %37, align 8, !tbaa !19
  %39 = load ptr, ptr %4, align 8, !tbaa !54
  %40 = getelementptr inbounds nuw %struct.ggml_tensor, ptr %39, i32 0, i32 2
  %41 = getelementptr inbounds [4 x i64], ptr %40, i64 0, i64 3
  %42 = load i64, ptr %41, align 8, !tbaa !19
  %43 = icmp eq i64 %38, %42
  br label %44

44:                                               ; preds = %34, %24, %14, %2
  %45 = phi i1 [ false, %24 ], [ false, %14 ], [ false, %2 ], [ %43, %34 ]
  ret i1 %45
}

; Function Attrs: nounwind uwtable
define ptr @ggml_count_equal(ptr noundef %0, ptr noundef %1, ptr noundef %2) #5 {
  %4 = alloca ptr, align 8
  %5 = alloca ptr, align 8
  %6 = alloca ptr, align 8
  %7 = alloca ptr, align 8
  store ptr %0, ptr %4, align 8, !tbaa !48
  store ptr %1, ptr %5, align 8, !tbaa !54
  store ptr %2, ptr %6, align 8, !tbaa !54
  %8 = load ptr, ptr %5, align 8, !tbaa !54
  %9 = load ptr, ptr %6, align 8, !tbaa !54
  %10 = call zeroext i1 @ggml_are_same_shape(ptr noundef %8, ptr noundef %9)
  br i1 %10, label %12, label %11

11:                                               ; preds = %3
  call void (ptr, i32, ptr, ...) @ggml_abort(ptr noundef @.str.12, i32 noundef 2284, ptr noundef @.str.13, ptr noundef @.str.26) #18
  unreachable

12:                                               ; preds = %3
  call void @llvm.lifetime.start.p0(i64 8, ptr %7) #14
  %13 = load ptr, ptr %4, align 8, !tbaa !48
  %14 = call ptr @ggml_new_tensor_1d(ptr noundef %13, i32 noundef 27, i64 noundef 1)
  store ptr %14, ptr %7, align 8, !tbaa !54
  %15 = load ptr, ptr %7, align 8, !tbaa !54
  %16 = getelementptr inbounds nuw %struct.ggml_tensor, ptr %15, i32 0, i32 4
  store i32 17, ptr %16, align 8, !tbaa !68
  %17 = load ptr, ptr %5, align 8, !tbaa !54
  %18 = load ptr, ptr %7, align 8, !tbaa !54
  %19 = getelementptr inbounds nuw %struct.ggml_tensor, ptr %18, i32 0, i32 7
  %20 = getelementptr inbounds [10 x ptr], ptr %19, i64 0, i64 0
  store ptr %17, ptr %20, align 8, !tbaa !54
  %21 = load ptr, ptr %6, align 8, !tbaa !54
  %22 = load ptr, ptr %7, align 8, !tbaa !54
  %23 = getelementptr inbounds nuw %struct.ggml_tensor, ptr %22, i32 0, i32 7
  %24 = getelementptr inbounds [10 x ptr], ptr %23, i64 0, i64 1
  store ptr %21, ptr %24, align 8, !tbaa !54
  %25 = load ptr, ptr %7, align 8, !tbaa !54
  call void @llvm.lifetime.end.p0(i64 8, ptr %7) #14
  ret ptr %25
}