; Function Attrs: nounwind uwtable
define noundef ptr @ggml_count_equal(ptr noundef captures(none) %0, ptr noundef %1, ptr noundef %2) local_unnamed_addr #4 {
  %4 = alloca i64, align 8
  %5 = getelementptr inbounds nuw i8, ptr %1, i64 16
  %6 = load i64, ptr %5, align 8, !tbaa !39
  %7 = getelementptr inbounds nuw i8, ptr %2, i64 16
  %8 = load i64, ptr %7, align 8, !tbaa !39
  %9 = icmp eq i64 %6, %8
  br i1 %9, label %10, label %ggml_are_same_shape.exit.thread

10:                                               ; preds = %3
  %11 = getelementptr inbounds nuw i8, ptr %1, i64 24
  %12 = load i64, ptr %11, align 8, !tbaa !39
  %13 = getelementptr inbounds nuw i8, ptr %2, i64 24
  %14 = load i64, ptr %13, align 8, !tbaa !39
  %15 = icmp eq i64 %12, %14
  br i1 %15, label %16, label %ggml_are_same_shape.exit.thread

16:                                               ; preds = %10
  %17 = getelementptr inbounds nuw i8, ptr %1, i64 32
  %18 = load i64, ptr %17, align 8, !tbaa !39
  %19 = getelementptr inbounds nuw i8, ptr %2, i64 32
  %20 = load i64, ptr %19, align 8, !tbaa !39
  %21 = icmp eq i64 %18, %20
  br i1 %21, label %ggml_are_same_shape.exit, label %ggml_are_same_shape.exit.thread

ggml_are_same_shape.exit:                         ; preds = %16
  %22 = getelementptr inbounds nuw i8, ptr %1, i64 40
  %23 = load i64, ptr %22, align 8, !tbaa !39
  %24 = getelementptr inbounds nuw i8, ptr %2, i64 40
  %25 = load i64, ptr %24, align 8, !tbaa !39
  %26 = icmp eq i64 %23, %25
  br i1 %26, label %27, label %ggml_are_same_shape.exit.thread

ggml_are_same_shape.exit.thread:                  ; preds = %3, %10, %16, %ggml_are_same_shape.exit
  tail call void (ptr, i32, ptr, ...) @ggml_abort(ptr noundef nonnull @.str.12, i32 noundef 2284, ptr noundef nonnull @.str.13, ptr noundef nonnull @.str.26) #47
  unreachable

27:                                               ; preds = %ggml_are_same_shape.exit
  call void @llvm.lifetime.start.p0(i64 8, ptr nonnull %4)
  store i64 1, ptr %4, align 8, !tbaa !39
  %28 = call fastcc noundef ptr @ggml_new_tensor_impl(ptr noundef %0, i32 noundef 27, i32 noundef 1, ptr noundef nonnull readonly %4, ptr noundef null, i64 noundef 0)
  call void @llvm.lifetime.end.p0(i64 8, ptr nonnull %4)
  %29 = getelementptr inbounds nuw i8, ptr %28, i64 80
  store i32 17, ptr %29, align 8, !tbaa !55
  %30 = getelementptr inbounds nuw i8, ptr %28, i64 152
  store ptr %1, ptr %30, align 8, !tbaa !81
  %31 = getelementptr inbounds nuw i8, ptr %28, i64 160
  store ptr %2, ptr %31, align 8, !tbaa !81
  ret ptr %28
}